target datalayout = "e-m:e-p270:32:32-p271:32:32-p272:64:64-i64:64-i128:128-f80:128-n8:16:32:64-S128"
target triple = "x86_64-pc-linux-gnu"

%struct.curltime = type { i64, i32 }
%struct.Curl_llist_node = type { ptr, ptr, ptr, ptr }
%struct.easy_pollset = type { [5 x i32], i32, [5 x i8] }
%struct.ssl_primary_config = type { ptr, ptr, ptr, ptr, ptr, ptr, ptr, ptr, ptr, ptr, ptr, ptr, i8, i32, i8, i8 }
%struct.dynbuf = type { ptr, i64, i64, i64 }
%struct.Curl_llist = type { ptr, ptr, ptr, i64 }
%struct.ip_quadruple = type { [46 x i8], [46 x i8], i32, i32 }
%struct.connectdata = type { %struct.Curl_llist_node, ptr, ptr, i64, ptr, i64, ptr, ptr, %struct.hostname, ptr, ptr, %struct.hostname, %struct.proxy_info, %struct.proxy_info, %struct.ip_quadruple, %struct.ip_quadruple, ptr, ptr, ptr, ptr, ptr, %struct.curltime, %struct.curltime, %struct.curltime, [2 x i32], [2 x ptr], [2 x ptr], [2 x ptr], %struct.anon, %struct.easy_pollset, %struct.ssl_primary_config, %struct.ssl_primary_config, %struct.ConnectBits, ptr, ptr, %struct.curltime, i32, i32, %struct.Curl_llist, i32, i32, %struct.ntlmdata, %struct.ntlmdata, %union.anon.1, ptr, i16, i32, i32, i32, i32, i16, i16, i8, i8, i8, i8, i8, i8, i8 }
%struct.hostname = type { ptr, ptr, ptr, ptr }
%struct.proxy_info = type { %struct.hostname, i32, i8, ptr, ptr }
%struct.anon = type { [2 x %struct.curltime], i32 }
%struct.ConnectBits = type { i64 }
%struct.ntlmdata = type { i32, [8 x i8], i32, ptr }
%union.anon.1 = type { %struct.ftp_conn }
%struct.ftp_conn = type { %struct.pingpong, ptr, ptr, ptr, ptr, ptr, ptr, ptr, i8, i64, ptr, i64, i32, i32, i32, i32, i32, i16, i8, i8, i8, i8, i8 }
%struct.pingpong = type { i64, i8, ptr, i64, i64, %struct.curltime, i64, %struct.dynbuf, %struct.dynbuf, i64, i64, ptr, ptr }

; Function Attrs: nounwind uwtable
define dso_local void @Curl_conncontrol(ptr noundef %0, i32 noundef %1) #0 {
  %3 = alloca ptr, align 8
  %4 = alloca i32, align 4
  %5 = alloca i8, align 1
  %6 = alloca i8, align 1
  store ptr %0, ptr %3, align 8, !tbaa !99
  store i32 %1, ptr %4, align 4, !tbaa !86
  call void @llvm.lifetime.start.p0(i64 1, ptr %5) #8
  call void @llvm.lifetime.start.p0(i64 1, ptr %6) #8
  br label %7

7:                                                ; preds = %2
  br label %8

8:                                                ; preds = %7
  br label %9

9:                                                ; preds = %8
  %10 = load ptr, ptr %3, align 8, !tbaa !99
  %11 = call zeroext i1 @Curl_conn_is_multiplex(ptr noundef %10, i32 noundef 0)
  %12 = zext i1 %11 to i8
  store i8 %12, ptr %6, align 1, !tbaa !11
  %13 = load i32, ptr %4, align 4, !tbaa !86
  %14 = icmp eq i32 %13, 1
  br i1 %14, label %24, label %15

15:                                               ; preds = %9
  %16 = load i32, ptr %4, align 4, !tbaa !86
  %17 = icmp eq i32 %16, 2
  br i1 %17, label %18, label %22

18:                                               ; preds = %15
  %19 = load i8, ptr %6, align 1, !tbaa !11, !range !83, !noundef !84
  %20 = trunc i8 %19 to i1
  %21 = xor i1 %20, true
  br label %22

22:                                               ; preds = %18, %15
  %23 = phi i1 [ false, %15 ], [ %21, %18 ]
  br label %24

24:                                               ; preds = %22, %9
  %25 = phi i1 [ true, %9 ], [ %23, %22 ]
  %26 = zext i1 %25 to i8
  store i8 %26, ptr %5, align 1, !tbaa !11
  %27 = load i32, ptr %4, align 4, !tbaa !86
  %28 = icmp eq i32 %27, 2
  br i1 %28, label %29, label %33

29:                                               ; preds = %24
  %30 = load i8, ptr %6, align 1, !tbaa !11, !range !83, !noundef !84
  %31 = trunc i8 %30 to i1
  br i1 %31, label %32, label %33

32:                                               ; preds = %29
  br label %57

33:                                               ; preds = %29, %24
  %34 = load i8, ptr %5, align 1, !tbaa !11, !range !83, !noundef !84
  %35 = trunc i8 %34 to i1
  %36 = zext i1 %35 to i32
  %37 = load ptr, ptr %3, align 8, !tbaa !99
  %38 = getelementptr inbounds nuw %struct.connectdata, ptr %37, i32 0, i32 32
  %39 = load i64, ptr %38, align 8
  %40 = lshr i64 %39, 5
  %41 = and i64 %40, 1
  %42 = trunc i64 %41 to i32
  %43 = icmp ne i32 %36, %42
  br i1 %43, label %44, label %56

44:                                               ; preds = %33
  %45 = load i8, ptr %5, align 1, !tbaa !11, !range !83, !noundef !84
  %46 = trunc i8 %45 to i1
  %47 = zext i1 %46 to i32
  %48 = load ptr, ptr %3, align 8, !tbaa !99
  %49 = getelementptr inbounds nuw %struct.connectdata, ptr %48, i32 0, i32 32
  %50 = zext i32 %47 to i64
  %51 = load i64, ptr %49, align 8
  %52 = and i64 %50, 1
  %53 = shl i64 %52, 5
  %54 = and i64 %51, -33
  %55 = or i64 %54, %53
  store i64 %55, ptr %49, align 8
  br label %56

56:                                               ; preds = %44, %33
  br label %57

57:                                               ; preds = %56, %32
  call void @llvm.lifetime.end.p0(i64 1, ptr %6) #8
  call void @llvm.lifetime.end.p0(i64 1, ptr %5) #8
  ret void
}